target datalayout = "e-m:e-p270:32:32-p271:32:32-p272:64:64-i64:64-i128:128-f80:128-n8:16:32:64-S128"
target triple = "x86_64-pc-linux-gnu"

%struct._timelib_tzinfo = type { ptr, %struct.anon, %struct.anon.0, ptr, ptr, ptr, ptr, ptr, i8, %struct._tlocinfo, ptr, ptr }
%struct.anon = type { i32, i32, i32, i32, i32, i32 }
%struct.anon.0 = type { i64, i64, i64, i64, i64, i64 }
%struct._tlocinfo = type { [3 x i8], double, double, ptr }

; Function Attrs: nounwind uwtable
define hidden void @timelib_tzinfo_dtor(ptr noundef %0) #0 {
  %2 = alloca ptr, align 8
  store ptr %0, ptr %2, align 8, !tbaa !4
  %3 = load ptr, ptr %2, align 8, !tbaa !4
  %4 = getelementptr inbounds nuw %struct._timelib_tzinfo, ptr %3, i32 0, i32 0
  %5 = load ptr, ptr %4, align 8, !tbaa !90
  %6 = icmp ne ptr %5, null
  br i1 %6, label %7, label %13

7:                                                ; preds = %1
  %8 = load ptr, ptr %2, align 8, !tbaa !4
  %9 = getelementptr inbounds nuw %struct._timelib_tzinfo, ptr %8, i32 0, i32 0
  %10 = load ptr, ptr %9, align 8, !tbaa !90
  call void @_efree(ptr noundef %10)
  %11 = load ptr, ptr %2, align 8, !tbaa !4
  %12 = getelementptr inbounds nuw %struct._timelib_tzinfo, ptr %11, i32 0, i32 0
  store ptr null, ptr %12, align 8, !tbaa !90
  br label %13

13:                                               ; preds = %7, %1
  %14 = load ptr, ptr %2, align 8, !tbaa !4
  %15 = getelementptr inbounds nuw %struct._timelib_tzinfo, ptr %14, i32 0, i32 3
  %16 = load ptr, ptr %15, align 8, !tbaa !33
  %17 = icmp ne ptr %16, null
  br i1 %17, label %18, label %24

18:                                               ; preds = %13
  %19 = load ptr, ptr %2, align 8, !tbaa !4
  %20 = getelementptr inbounds nuw %struct._timelib_tzinfo, ptr %19, i32 0, i32 3
  %21 = load ptr, ptr %20, align 8, !tbaa !33
  call void @_efree(ptr noundef %21)
  %22 = load ptr, ptr %2, align 8, !tbaa !4
  %23 = getelementptr inbounds nuw %struct._timelib_tzinfo, ptr %22, i32 0, i32 3
  store ptr null, ptr %23, align 8, !tbaa !33
  br label %24

24:                                               ; preds = %18, %13
  %25 = load ptr, ptr %2, align 8, !tbaa !4
  %26 = getelementptr inbounds nuw %struct._timelib_tzinfo, ptr %25, i32 0, i32 4
  %27 = load ptr, ptr %26, align 8, !tbaa !35
  %28 = icmp ne ptr %27, null
  br i1 %28, label %29, label %35

29:                                               ; preds = %24
  %30 = load ptr, ptr %2, align 8, !tbaa !4
  %31 = getelementptr inbounds nuw %struct._timelib_tzinfo, ptr %30, i32 0, i32 4
  %32 = load ptr, ptr %31, align 8, !tbaa !35
  call void @_efree(ptr noundef %32)
  %33 = load ptr, ptr %2, align 8, !tbaa !4
  %34 = getelementptr inbounds nuw %struct._timelib_tzinfo, ptr %33, i32 0, i32 4
  store ptr null, ptr %34, align 8, !tbaa !35
  br label %35

35:                                               ; preds = %29, %24
  %36 = load ptr, ptr %2, align 8, !tbaa !4
  %37 = getelementptr inbounds nuw %struct._timelib_tzinfo, ptr %36, i32 0, i32 5
  %38 = load ptr, ptr %37, align 8, !tbaa !56
  %39 = icmp ne ptr %38, null
  br i1 %39, label %40, label %46

40:                                               ; preds = %35
  %41 = load ptr, ptr %2, align 8, !tbaa !4
  %42 = getelementptr inbounds nuw %struct._timelib_tzinfo, ptr %41, i32 0, i32 5
  %43 = load ptr, ptr %42, align 8, !tbaa !56
  call void @_efree(ptr noundef %43)
  %44 = load ptr, ptr %2, align 8, !tbaa !4
  %45 = getelementptr inbounds nuw %struct._timelib_tzinfo, ptr %44, i32 0, i32 5
  store ptr null, ptr %45, align 8, !tbaa !56
  br label %46

46:                                               ; preds = %40, %35
  %47 = load ptr, ptr %2, align 8, !tbaa !4
  %48 = getelementptr inbounds nuw %struct._timelib_tzinfo, ptr %47, i32 0, i32 6
  %49 = load ptr, ptr %48, align 8, !tbaa !61
  %50 = icmp ne ptr %49, null
  br i1 %50, label %51, label %57

51:                                               ; preds = %46
  %52 = load ptr, ptr %2, align 8, !tbaa !4
  %53 = getelementptr inbounds nuw %struct._timelib_tzinfo, ptr %52, i32 0, i32 6
  %54 = load ptr, ptr %53, align 8, !tbaa !61
  call void @_efree(ptr noundef %54)
  %55 = load ptr, ptr %2, align 8, !tbaa !4
  %56 = getelementptr inbounds nuw %struct._timelib_tzinfo, ptr %55, i32 0, i32 6
  store ptr null, ptr %56, align 8, !tbaa !61
  br label %57

57:                                               ; preds = %51, %46
  %58 = load ptr, ptr %2, align 8, !tbaa !4
  %59 = getelementptr inbounds nuw %struct._timelib_tzinfo, ptr %58, i32 0, i32 7
  %60 = load ptr, ptr %59, align 8, !tbaa !37
  %61 = icmp ne ptr %60, null
  br i1 %61, label %62, label %68

62:                                               ; preds = %57
  %63 = load ptr, ptr %2, align 8, !tbaa !4
  %64 = getelementptr inbounds nuw %struct._timelib_tzinfo, ptr %63, i32 0, i32 7
  %65 = load ptr, ptr %64, align 8, !tbaa !37
  call void @_efree(ptr noundef %65)
  %66 = load ptr, ptr %2, align 8, !tbaa !4
  %67 = getelementptr inbounds nuw %struct._timelib_tzinfo, ptr %66, i32 0, i32 7
  store ptr null, ptr %67, align 8, !tbaa !37
  br label %68

68:                                               ; preds = %62, %57
  %69 = load ptr, ptr %2, align 8, !tbaa !4
  %70 = getelementptr inbounds nuw %struct._timelib_tzinfo, ptr %69, i32 0, i32 9
  %71 = getelementptr inbounds nuw %struct._tlocinfo, ptr %70, i32 0, i32 3
  %72 = load ptr, ptr %71, align 8, !tbaa !23
  %73 = icmp ne ptr %72, null
  br i1 %73, label %74, label %82

74:                                               ; preds = %68
  %75 = load ptr, ptr %2, align 8, !tbaa !4
  %76 = getelementptr inbounds nuw %struct._timelib_tzinfo, ptr %75, i32 0, i32 9
  %77 = getelementptr inbounds nuw %struct._tlocinfo, ptr %76, i32 0, i32 3
  %78 = load ptr, ptr %77, align 8, !tbaa !23
  call void @_efree(ptr noundef %78)
  %79 = load ptr, ptr %2, align 8, !tbaa !4
  %80 = getelementptr inbounds nuw %struct._timelib_tzinfo, ptr %79, i32 0, i32 9
  %81 = getelementptr inbounds nuw %struct._tlocinfo, ptr %80, i32 0, i32 3
  store ptr null, ptr %81, align 8, !tbaa !23
  br label %82

82:                                               ; preds = %74, %68
  %83 = load ptr, ptr %2, align 8, !tbaa !4
  %84 = getelementptr inbounds nuw %struct._timelib_tzinfo, ptr %83, i32 0, i32 10
  %85 = load ptr, ptr %84, align 8, !tbaa !41
  %86 = icmp ne ptr %85, null
  br i1 %86, label %87, label %93

87:                                               ; preds = %82
  %88 = load ptr, ptr %2, align 8, !tbaa !4
  %89 = getelementptr inbounds nuw %struct._timelib_tzinfo, ptr %88, i32 0, i32 10
  %90 = load ptr, ptr %89, align 8, !tbaa !41
  call void @_efree(ptr noundef %90)
  %91 = load ptr, ptr %2, align 8, !tbaa !4
  %92 = getelementptr inbounds nuw %struct._timelib_tzinfo, ptr %91, i32 0, i32 10
  store ptr null, ptr %92, align 8, !tbaa !41
  br label %93

93:                                               ; preds = %87, %82
  %94 = load ptr, ptr %2, align 8, !tbaa !4
  %95 = getelementptr inbounds nuw %struct._timelib_tzinfo, ptr %94, i32 0, i32 11
  %96 = load ptr, ptr %95, align 8, !tbaa !42
  %97 = icmp ne ptr %96, null
  br i1 %97, label %98, label %102

98:                                               ; preds = %93
  %99 = load ptr, ptr %2, align 8, !tbaa !4
  %100 = getelementptr inbounds nuw %struct._timelib_tzinfo, ptr %99, i32 0, i32 11
  %101 = load ptr, ptr %100, align 8, !tbaa !42
  call void @timelib_posix_str_dtor(ptr noundef %101)
  br label %102

102:                                              ; preds = %98, %93
  %103 = load ptr, ptr %2, align 8, !tbaa !4
  %104 = icmp ne ptr %103, null
  br i1 %104, label %105, label %107

105:                                              ; preds = %102
  %106 = load ptr, ptr %2, align 8, !tbaa !4
  call void @_efree(ptr noundef %106)
  store ptr null, ptr %2, align 8, !tbaa !4
  br label %107

107:                                              ; preds = %105, %102
  store ptr null, ptr %2, align 8, !tbaa !4
  ret void
}