; Function Attrs: nounwind uwtable
define hidden void @timelib_tzinfo_dtor(ptr noundef %0) local_unnamed_addr #0 {
  %2 = load ptr, ptr %0, align 8, !tbaa !79
  %.not = icmp eq ptr %2, null
  br i1 %.not, label %4, label %3

3:                                                ; preds = %1
  tail call void @_efree(ptr noundef nonnull %2) #17
  store ptr null, ptr %0, align 8, !tbaa !79
  br label %4

4:                                                ; preds = %3, %1
  %5 = getelementptr inbounds nuw i8, ptr %0, i64 80
  %6 = load ptr, ptr %5, align 8, !tbaa !43
  %.not36 = icmp eq ptr %6, null
  br i1 %.not36, label %8, label %7

7:                                                ; preds = %4
  tail call void @_efree(ptr noundef nonnull %6) #17
  store ptr null, ptr %5, align 8, !tbaa !43
  br label %8

8:                                                ; preds = %7, %4
  %9 = getelementptr inbounds nuw i8, ptr %0, i64 88
  %10 = load ptr, ptr %9, align 8, !tbaa !56
  %.not37 = icmp eq ptr %10, null
  br i1 %.not37, label %12, label %11

11:                                               ; preds = %8
  tail call void @_efree(ptr noundef nonnull %10) #17
  store ptr null, ptr %9, align 8, !tbaa !56
  br label %12

12:                                               ; preds = %11, %8
  %13 = getelementptr inbounds nuw i8, ptr %0, i64 96
  %14 = load ptr, ptr %13, align 8, !tbaa !35
  %.not38 = icmp eq ptr %14, null
  br i1 %.not38, label %16, label %15

15:                                               ; preds = %12
  tail call void @_efree(ptr noundef nonnull %14) #17
  store ptr null, ptr %13, align 8, !tbaa !35
  br label %16

16:                                               ; preds = %15, %12
  %17 = getelementptr inbounds nuw i8, ptr %0, i64 104
  %18 = load ptr, ptr %17, align 8, !tbaa !40
  %.not39 = icmp eq ptr %18, null
  br i1 %.not39, label %20, label %19

19:                                               ; preds = %16
  tail call void @_efree(ptr noundef nonnull %18) #17
  store ptr null, ptr %17, align 8, !tbaa !40
  br label %20

20:                                               ; preds = %19, %16
  %21 = getelementptr inbounds nuw i8, ptr %0, i64 112
  %22 = load ptr, ptr %21, align 8, !tbaa !58
  %.not40 = icmp eq ptr %22, null
  br i1 %.not40, label %24, label %23

23:                                               ; preds = %20
  tail call void @_efree(ptr noundef nonnull %22) #17
  store ptr null, ptr %21, align 8, !tbaa !58
  br label %24

24:                                               ; preds = %23, %20
  %25 = getelementptr inbounds nuw i8, ptr %0, i64 152
  %26 = load ptr, ptr %25, align 8, !tbaa !21
  %.not41 = icmp eq ptr %26, null
  br i1 %.not41, label %28, label %27

27:                                               ; preds = %24
  tail call void @_efree(ptr noundef nonnull %26) #17
  store ptr null, ptr %25, align 8, !tbaa !21
  br label %28

28:                                               ; preds = %27, %24
  %29 = getelementptr inbounds nuw i8, ptr %0, i64 160
  %30 = load ptr, ptr %29, align 8, !tbaa !62
  %.not42 = icmp eq ptr %30, null
  br i1 %.not42, label %32, label %31

31:                                               ; preds = %28
  tail call void @_efree(ptr noundef nonnull %30) #17
  store ptr null, ptr %29, align 8, !tbaa !62
  br label %32

32:                                               ; preds = %31, %28
  %33 = getelementptr inbounds nuw i8, ptr %0, i64 168
  %34 = load ptr, ptr %33, align 8, !tbaa !63
  %.not43 = icmp eq ptr %34, null
  br i1 %.not43, label %36, label %35

35:                                               ; preds = %32
  tail call void @timelib_posix_str_dtor(ptr noundef nonnull %34) #17
  br label %36

36:                                               ; preds = %32, %35
  tail call void @_efree(ptr noundef nonnull %0) #17
  ret void
}